ARM GAS  /tmp/ccHsZMaq.s 			page 1


   1              		.cpu cortex-m4
   2              		.eabi_attribute 27, 1
   3              		.eabi_attribute 28, 1
   4              		.eabi_attribute 20, 1
   5              		.eabi_attribute 21, 1
   6              		.eabi_attribute 23, 3
   7              		.eabi_attribute 24, 1
   8              		.eabi_attribute 25, 1
   9              		.eabi_attribute 26, 1
  10              		.eabi_attribute 30, 2
  11              		.eabi_attribute 34, 1
  12              		.eabi_attribute 18, 4
  13              		.file	"main.c"
  14              		.text
  15              	.Ltext0:
  16              		.cfi_sections	.debug_frame
  17              		.section	.text.startup.main,"ax",%progbits
  18              		.align	1
  19              		.p2align 4,,15
  20              		.global	main
  21              		.syntax unified
  22              		.thumb
  23              		.thumb_func
  24              		.fpu fpv4-sp-d16
  25              		.type	main, %function
  26              	main:
  27              	.LFB259:
  28              		.file 1 "main.c"
  29              		.loc 1 24 0
  30              		.cfi_startproc
  31              		@ args = 0, pretend = 0, frame = 40
  32              		@ frame_needed = 0, uses_anonymous_args = 0
  33 0000 70B5     		push	{r4, r5, r6, lr}
  34              		.cfi_def_cfa_offset 16
  35              		.cfi_offset 4, -16
  36              		.cfi_offset 5, -12
  37              		.cfi_offset 6, -8
  38              		.cfi_offset 14, -4
  39 0002 4E4B     		ldr	r3, .L25
  40              	.LBB2:
  41              	.LBB3:
  42              		.loc 1 90 0
  43 0004 4E4E     		ldr	r6, .L25+4
  44              	.LBE3:
  45              	.LBE2:
  46              		.loc 1 24 0
  47 0006 1B68     		ldr	r3, [r3]
  48 0008 8AB0     		sub	sp, sp, #40
  49              		.cfi_def_cfa_offset 56
  50              		.loc 1 24 0
  51 000a 0993     		str	r3, [sp, #36]
  52              		.loc 1 26 0
  53 000c FFF7FEFF 		bl	halInit
  54              	.LVL0:
  55              		.loc 1 27 0
  56 0010 FFF7FEFF 		bl	chSysInit
  57              	.LVL1:
ARM GAS  /tmp/ccHsZMaq.s 			page 2


  58              		.loc 1 28 0
  59 0014 FFF7FEFF 		bl	mpu_init
  60              	.LVL2:
  61              		.loc 1 32 0
  62 0018 FFF7FEFF 		bl	clear_leds
  63              	.LVL3:
  64              		.loc 1 33 0
  65 001c 0020     		movs	r0, #0
  66 001e FFF7FEFF 		bl	set_body_led
  67              	.LVL4:
  68              		.loc 1 34 0
  69 0022 0020     		movs	r0, #0
  70 0024 FFF7FEFF 		bl	set_front_led
  71              	.LVL5:
  72              		.loc 1 35 0
  73 0028 FFF7FEFF 		bl	motors_init
  74              	.LVL6:
  75              		.loc 1 36 0
  76 002c FFF7FEFF 		bl	proximity_start
  77              	.LVL7:
  78              		.loc 1 37 0
  79 0030 FFF7FEFF 		bl	calibrate_ir
  80              	.LVL8:
  81              		.loc 1 41 0
  82 0034 0020     		movs	r0, #0
  83 0036 FFF7FEFF 		bl	left_motor_set_speed
  84              	.LVL9:
  85              		.loc 1 42 0
  86 003a 0020     		movs	r0, #0
  87 003c FFF7FEFF 		bl	right_motor_set_speed
  88              	.LVL10:
  89              	.L11:
  90              	.LBB5:
  91              		.loc 1 54 0
  92 0040 4FF47A70 		mov	r0, #1000
  93 0044 FFF7FEFF 		bl	chThdSleep
  94              	.LVL11:
  95 0048 6D46     		mov	r5, sp
  96              	.LBB4:
  97              		.loc 1 58 0
  98 004a 0024     		movs	r4, #0
  99 004c 1BE0     		b	.L10
 100              	.LVL12:
 101              	.L23:
 102              		.loc 1 73 0 discriminator 1
 103 004e 32BB     		cbnz	r2, .L4
 104              		.loc 1 73 0 is_stmt 0 discriminator 2
 105 0050 089B     		ldr	r3, [sp, #32]
 106 0052 002B     		cmp	r3, #0
 107 0054 3FD0     		beq	.L5
 108              	.L6:
 109              		.loc 1 85 0 is_stmt 1
 110 0056 0020     		movs	r0, #0
 111 0058 FFF7FEFF 		bl	left_motor_set_speed
 112              	.LVL13:
 113              		.loc 1 86 0
 114 005c 0020     		movs	r0, #0
ARM GAS  /tmp/ccHsZMaq.s 			page 3


 115 005e FFF7FEFF 		bl	right_motor_set_speed
 116              	.LVL14:
 117              		.loc 1 87 0
 118 0062 4FF47A70 		mov	r0, #1000
 119 0066 FFF7FEFF 		bl	chThdSleep
 120              	.LVL15:
 121              		.loc 1 89 0
 122 006a 4FF49670 		mov	r0, #300
 123 006e FFF7FEFF 		bl	left_motor_set_speed
 124              	.LVL16:
 125              		.loc 1 90 0
 126 0072 3046     		mov	r0, r6
 127 0074 FFF7FEFF 		bl	right_motor_set_speed
 128              	.LVL17:
 129              		.loc 1 91 0
 130 0078 4FF47A70 		mov	r0, #1000
 131 007c FFF7FEFF 		bl	chThdSleep
 132              	.LVL18:
 133              	.L3:
 134              		.loc 1 58 0 discriminator 2
 135 0080 0134     		adds	r4, r4, #1
 136              	.LVL19:
 137 0082 082C     		cmp	r4, #8
 138 0084 DCD0     		beq	.L11
 139              	.LVL20:
 140              	.L10:
 141              		.loc 1 60 0
 142 0086 2046     		mov	r0, r4
 143 0088 FFF7FEFF 		bl	get_prox
 144              	.LVL21:
 145 008c 45F8040F 		str	r0, [r5, #4]!
 146              		.loc 1 63 0
 147 0090 069B     		ldr	r3, [sp, #24]
 148 0092 C72B     		cmp	r3, #199
 149 0094 1FDD     		ble	.L5
 150              		.loc 1 73 0
 151 0096 0799     		ldr	r1, [sp, #28]
 152 0098 019A     		ldr	r2, [sp, #4]
 153 009a 8B42     		cmp	r3, r1
 154 009c D7DB     		blt	.L23
 155              	.L4:
 156              		.loc 1 83 0
 157 009e B2F5FA7F 		cmp	r2, #500
 158 00a2 D8DB     		blt	.L6
 159              		.loc 1 83 0 is_stmt 0 discriminator 1
 160 00a4 089A     		ldr	r2, [sp, #32]
 161 00a6 039B     		ldr	r3, [sp, #12]
 162 00a8 B2F5FA7F 		cmp	r2, #500
 163 00ac 20DA     		bge	.L7
 164              		.loc 1 83 0 discriminator 2
 165 00ae 002B     		cmp	r3, #0
 166 00b0 D1D0     		beq	.L6
 167              		.loc 1 93 0 is_stmt 1
 168 00b2 C72B     		cmp	r3, #199
 169 00b4 1EDD     		ble	.L12
 170              		.loc 1 103 0 discriminator 2
 171 00b6 B3F5967F 		cmp	r3, #300
ARM GAS  /tmp/ccHsZMaq.s 			page 4


 172 00ba 32DB     		blt	.L24
 173              	.L9:
 174              		.loc 1 136 0
 175 00bc 4FF49670 		mov	r0, #300
 176              	.L21:
 177 00c0 FFF7FEFF 		bl	left_motor_set_speed
 178              	.LVL22:
 179              		.loc 1 137 0
 180 00c4 4FF49670 		mov	r0, #300
 181 00c8 FFF7FEFF 		bl	right_motor_set_speed
 182              	.LVL23:
 183              		.loc 1 138 0
 184 00cc 4FF47A70 		mov	r0, #1000
 185 00d0 FFF7FEFF 		bl	chThdSleep
 186              	.LVL24:
 187 00d4 D4E7     		b	.L3
 188              	.L5:
 189              		.loc 1 65 0
 190 00d6 0020     		movs	r0, #0
 191 00d8 FFF7FEFF 		bl	left_motor_set_speed
 192              	.LVL25:
 193              		.loc 1 66 0
 194 00dc 0020     		movs	r0, #0
 195 00de FFF7FEFF 		bl	right_motor_set_speed
 196              	.LVL26:
 197              		.loc 1 67 0
 198 00e2 4FF47A70 		mov	r0, #1000
 199 00e6 FFF7FEFF 		bl	chThdSleep
 200              	.LVL27:
 201              		.loc 1 69 0
 202 00ea 4FF49B70 		mov	r0, #310
 203 00ee E7E7     		b	.L21
 204              	.L7:
 205              		.loc 1 93 0
 206 00f0 C72B     		cmp	r3, #199
 207 00f2 E3DC     		bgt	.L9
 208              	.L12:
 209              		.loc 1 95 0
 210 00f4 0020     		movs	r0, #0
 211 00f6 FFF7FEFF 		bl	left_motor_set_speed
 212              	.LVL28:
 213              		.loc 1 96 0
 214 00fa 0020     		movs	r0, #0
 215 00fc FFF7FEFF 		bl	right_motor_set_speed
 216              	.LVL29:
 217              		.loc 1 97 0
 218 0100 4FF47A70 		mov	r0, #1000
 219 0104 FFF7FEFF 		bl	chThdSleep
 220              	.LVL30:
 221              		.loc 1 99 0
 222 0108 4FF49670 		mov	r0, #300
 223 010c FFF7FEFF 		bl	left_motor_set_speed
 224              	.LVL31:
 225              		.loc 1 100 0
 226 0110 4FF49B70 		mov	r0, #310
 227 0114 FFF7FEFF 		bl	right_motor_set_speed
 228              	.LVL32:
ARM GAS  /tmp/ccHsZMaq.s 			page 5


 229              		.loc 1 101 0
 230 0118 4FF47A70 		mov	r0, #1000
 231 011c FFF7FEFF 		bl	chThdSleep
 232              	.LVL33:
 233 0120 AEE7     		b	.L3
 234              	.L24:
 235              		.loc 1 105 0
 236 0122 0020     		movs	r0, #0
 237 0124 FFF7FEFF 		bl	left_motor_set_speed
 238              	.LVL34:
 239              		.loc 1 106 0
 240 0128 0020     		movs	r0, #0
 241 012a FFF7FEFF 		bl	right_motor_set_speed
 242              	.LVL35:
 243              		.loc 1 107 0
 244 012e 4FF47A70 		mov	r0, #1000
 245 0132 FFF7FEFF 		bl	chThdSleep
 246              	.LVL36:
 247              		.loc 1 109 0
 248 0136 3046     		mov	r0, r6
 249 0138 C2E7     		b	.L21
 250              	.L26:
 251 013a 00BF     		.align	2
 252              	.L25:
 253 013c 00000000 		.word	__stack_chk_guard
 254 0140 D4FEFFFF 		.word	-300
 255              	.LBE4:
 256              	.LBE5:
 257              		.cfi_endproc
 258              	.LFE259:
 259              		.size	main, .-main
 260              		.section	.text.__stack_chk_fail,"ax",%progbits
 261              		.align	1
 262              		.p2align 4,,15
 263              		.global	__stack_chk_fail
 264              		.syntax unified
 265              		.thumb
 266              		.thumb_func
 267              		.fpu fpv4-sp-d16
 268              		.type	__stack_chk_fail, %function
 269              	__stack_chk_fail:
 270              	.LFB260:
 271              		.loc 1 148 0
 272              		.cfi_startproc
 273              		@ args = 0, pretend = 0, frame = 8
 274              		@ frame_needed = 0, uses_anonymous_args = 0
 275 0000 00B5     		push	{lr}
 276              		.cfi_def_cfa_offset 4
 277              		.cfi_offset 14, -4
 278 0002 084B     		ldr	r3, .L32
 279 0004 83B0     		sub	sp, sp, #12
 280              		.cfi_def_cfa_offset 16
 281              		.loc 1 148 0
 282 0006 1A68     		ldr	r2, [r3]
 283 0008 0192     		str	r2, [sp, #4]
 284              		.loc 1 149 0
 285 000a 019A     		ldr	r2, [sp, #4]
ARM GAS  /tmp/ccHsZMaq.s 			page 6


 286 000c 1B68     		ldr	r3, [r3]
 287 000e 9A42     		cmp	r2, r3
 288 0010 05D1     		bne	.L31
 289 0012 0548     		ldr	r0, .L32+4
 290              		.loc 1 150 0
 291 0014 03B0     		add	sp, sp, #12
 292              		.cfi_remember_state
 293              		.cfi_def_cfa_offset 4
 294              		@ sp needed
 295 0016 5DF804EB 		ldr	lr, [sp], #4
 296              		.cfi_restore 14
 297              		.cfi_def_cfa_offset 0
 298              		.loc 1 149 0
 299 001a FFF7FEBF 		b	chSysHalt
 300              	.LVL37:
 301              	.L31:
 302              		.cfi_restore_state
 303 001e FFF7FEFF 		bl	__stack_chk_fail
 304              	.LVL38:
 305              	.L33:
 306 0022 00BF     		.align	2
 307              	.L32:
 308 0024 00000000 		.word	__stack_chk_guard
 309 0028 00000000 		.word	.LC1
 310              		.cfi_endproc
 311              	.LFE260:
 312              		.size	__stack_chk_fail, .-__stack_chk_fail
 313              		.global	__stack_chk_guard
 314              		.global	bus_condvar
 315              		.global	bus
 316              		.section	.bss.bus,"aw",%nobits
 317              		.align	2
 318              		.type	bus, %object
 319              		.size	bus, 12
 320              	bus:
 321 0000 00000000 		.space	12
 321      00000000 
 321      00000000 
 322              		.section	.data.__stack_chk_guard,"aw",%progbits
 323              		.align	2
 324              		.type	__stack_chk_guard, %object
 325              		.size	__stack_chk_guard, 4
 326              	__stack_chk_guard:
 327 0000 96E3DEE2 		.word	-488709226
 328              		.section	.data.bus_condvar,"aw",%progbits
 329              		.align	2
 330              		.type	bus_condvar, %object
 331              		.size	bus_condvar, 8
 332              	bus_condvar:
 333 0000 00000000 		.word	bus_condvar
 334 0004 00000000 		.word	bus_condvar
 335              		.section	.rodata.__stack_chk_fail.str1.4,"aMS",%progbits,1
 336              		.align	2
 337              	.LC1:
 338 0000 53746163 		.ascii	"Stack smashing detected\000"
 338      6B20736D 
 338      61736869 
ARM GAS  /tmp/ccHsZMaq.s 			page 7


 338      6E672064 
 338      65746563 
 339              		.text
 340              	.Letext0:
 341              		.file 2 "/home/yifan/\346\226\207\346\241\243/zhuyifan/Eclipse_e-puck2/Tools/gcc-arm-none-eabi-7-2
 342              		.file 3 "/home/yifan/\346\226\207\346\241\243/zhuyifan/Eclipse_e-puck2/Tools/gcc-arm-none-eabi-7-2
 343              		.file 4 "/home/yifan/\346\226\207\346\241\243/zhuyifan/Eclipse_e-puck2/Tools/gcc-arm-none-eabi-7-2
 344              		.file 5 "/home/yifan/\346\226\207\346\241\243/zhuyifan/Eclipse_e-puck2/Tools/gcc-arm-none-eabi-7-2
 345              		.file 6 "/home/yifan/\346\226\207\346\241\243/zhuyifan/Eclipse_e-puck2/Tools/gcc-arm-none-eabi-7-2
 346              		.file 7 "/home/yifan/\346\226\207\346\241\243/zhuyifan/Eclipse_e-puck2/Tools/gcc-arm-none-eabi-7-2
 347              		.file 8 "/home/yifan/\346\226\207\346\241\243/zhuyifan/Eclipse_e-puck2/Tools/gcc-arm-none-eabi-7-2
 348              		.file 9 "/home/yifan/\346\226\207\346\241\243/zhuyifan/Eclipse_e-puck2/Tools/gcc-arm-none-eabi-7-2
 349              		.file 10 "../e-puck2_main-processor/ChibiOS//os/rt/ports/ARMCMx/compilers/GCC/chtypes.h"
 350              		.file 11 "../e-puck2_main-processor/ChibiOS//os/rt/include/chsystypes.h"
 351              		.file 12 "../e-puck2_main-processor/ChibiOS//os/rt/include/chschd.h"
 352              		.file 13 "../e-puck2_main-processor/ChibiOS//os/ext/CMSIS/include/core_cm4.h"
 353              		.file 14 "../e-puck2_main-processor/ChibiOS//os/ext/CMSIS/ST/system_stm32f4xx.h"
 354              		.file 15 "../e-puck2_main-processor/ChibiOS//os/ext/CMSIS/ST/stm32f407xx.h"
 355              		.file 16 "../e-puck2_main-processor/ChibiOS//os/rt/ports/ARMCMx/chcore.h"
 356              		.file 17 "../e-puck2_main-processor/ChibiOS//os/rt/ports/ARMCMx/chcore_v7m.h"
 357              		.file 18 "../e-puck2_main-processor/ChibiOS//os/rt/include/chdebug.h"
 358              		.file 19 "../e-puck2_main-processor/ChibiOS//os/rt/include/chtm.h"
 359              		.file 20 "../e-puck2_main-processor/ChibiOS//os/rt/include/chstats.h"
 360              		.file 21 "../e-puck2_main-processor/ChibiOS//os/rt/include/chsem.h"
 361              		.file 22 "../e-puck2_main-processor/ChibiOS//os/rt/include/chmtx.h"
 362              		.file 23 "../e-puck2_main-processor/ChibiOS//os/rt/include/chregistry.h"
 363              		.file 24 "../e-puck2_main-processor/ChibiOS//os/rt/include/chcond.h"
 364              		.file 25 "../e-puck2_main-processor/ChibiOS//os/rt/include/chevents.h"
 365              		.file 26 "../e-puck2_main-processor/ChibiOS//os/rt/include/chqueues.h"
 366              		.file 27 "../e-puck2_main-processor/ChibiOS//os/hal/ports/STM32/STM32F4xx/stm32_dma.h"
 367              		.file 28 "../e-puck2_main-processor/ChibiOS//os/hal/include/hal_ioblock.h"
 368              		.file 29 "../e-puck2_main-processor/ChibiOS//os/hal/ports/STM32/LLD/GPIOv2/pal_lld.h"
 369              		.file 30 "../e-puck2_main-processor/ChibiOS//os/hal/include/adc.h"
 370              		.file 31 "../e-puck2_main-processor/ChibiOS//os/hal/ports/STM32/STM32F4xx/adc_lld.h"
 371              		.file 32 "../e-puck2_main-processor/ChibiOS//os/hal/include/can.h"
 372              		.file 33 "../e-puck2_main-processor/ChibiOS//os/hal/ports/STM32/LLD/can_lld.h"
 373              		.file 34 "../e-puck2_main-processor/ChibiOS//os/hal/include/dac.h"
 374              		.file 35 "../e-puck2_main-processor/ChibiOS//os/hal/ports/STM32/LLD/DACv1/dac_lld.h"
 375              		.file 36 "../e-puck2_main-processor/ChibiOS//os/hal/include/ext.h"
 376              		.file 37 "../e-puck2_main-processor/ChibiOS//os/hal/ports/STM32/LLD/ext_lld.h"
 377              		.file 38 "../e-puck2_main-processor/ChibiOS//os/hal/include/gpt.h"
 378              		.file 39 "../e-puck2_main-processor/ChibiOS//os/hal/ports/STM32/LLD/TIMv1/gpt_lld.h"
 379              		.file 40 "../e-puck2_main-processor/ChibiOS//os/hal/ports/STM32/LLD/TIMv1/stm32_tim.h"
 380              		.file 41 "../e-puck2_main-processor/ChibiOS//os/hal/include/i2c.h"
 381              		.file 42 "../e-puck2_main-processor/ChibiOS//os/hal/ports/STM32/LLD/I2Cv1/i2c_lld.h"
 382              		.file 43 "../e-puck2_main-processor/ChibiOS//os/hal/include/i2s.h"
 383              		.file 44 "../e-puck2_main-processor/ChibiOS//os/hal/ports/STM32/LLD/SPIv1/i2s_lld.h"
 384              		.file 45 "../e-puck2_main-processor/ChibiOS//os/hal/include/pwm.h"
 385              		.file 46 "../e-puck2_main-processor/ChibiOS//os/hal/ports/STM32/LLD/TIMv1/pwm_lld.h"
 386              		.file 47 "../e-puck2_main-processor/ChibiOS//os/hal/include/serial.h"
 387              		.file 48 "../e-puck2_main-processor/ChibiOS//os/hal/ports/STM32/LLD/USARTv1/serial_lld.h"
 388              		.file 49 "../e-puck2_main-processor/ChibiOS//os/hal/include/sdc.h"
 389              		.file 50 "../e-puck2_main-processor/ChibiOS//os/hal/ports/STM32/LLD/sdc_lld.h"
 390              		.file 51 "../e-puck2_main-processor/ChibiOS//os/hal/include/spi.h"
 391              		.file 52 "../e-puck2_main-processor/ChibiOS//os/hal/ports/STM32/LLD/SPIv1/spi_lld.h"
 392              		.file 53 "../e-puck2_main-processor/ChibiOS//os/hal/include/usb.h"
 393              		.file 54 "../e-puck2_main-processor/ChibiOS//os/hal/ports/STM32/LLD/OTGv1/usb_lld.h"
ARM GAS  /tmp/ccHsZMaq.s 			page 8


 394              		.file 55 "../e-puck2_main-processor/ChibiOS//os/hal/ports/STM32/LLD/OTGv1/stm32_otg.h"
 395              		.file 56 "/home/yifan/\346\226\207\346\241\243/zhuyifan/Eclipse_e-puck2/Tools/gcc-arm-none-eabi-7-
 396              		.file 57 "../e-puck2_main-processor/src/msgbus/messagebus.h"
 397              		.file 58 "../e-puck2_main-processor/src/parameter/parameter.h"
 398              		.file 59 "./main.h"
 399              		.file 60 "../e-puck2_main-processor/src/motors.h"
 400              		.file 61 "../e-puck2_main-processor/ChibiOS//os/rt/include/chsys.h"
 401              		.file 62 "../e-puck2_main-processor/ChibiOS//os/rt/include/chthreads.h"
 402              		.file 63 "../e-puck2_main-processor/src/sensors/proximity.h"
 403              		.file 64 "../e-puck2_main-processor/ChibiOS//os/hal/include/hal.h"
 404              		.file 65 "../e-puck2_main-processor/src/memory_protection.h"
 405              		.file 66 "../e-puck2_main-processor/src/leds.h"